
DA2_c_T2.elf:     file format elf32-avr

Sections:
Idx Name          Size      VMA       LMA       File off  Algn
  0 .data         00000000  00800100  00800100  000001c4  2**0
                  CONTENTS, ALLOC, LOAD, DATA
  1 .text         00000150  00000000  00000000  00000074  2**1
                  CONTENTS, ALLOC, LOAD, READONLY, CODE
  2 .bss          00000002  00800100  00800100  000001c4  2**0
                  ALLOC
  3 .comment      00000030  00000000  00000000  000001c4  2**0
                  CONTENTS, READONLY
  4 .note.gnu.avr.deviceinfo 00000040  00000000  00000000  000001f4  2**2
                  CONTENTS, READONLY
  5 .debug_aranges 00000048  00000000  00000000  00000234  2**0
                  CONTENTS, READONLY, DEBUGGING
  6 .debug_info   00000c3c  00000000  00000000  0000027c  2**0
                  CONTENTS, READONLY, DEBUGGING
  7 .debug_abbrev 00000a58  00000000  00000000  00000eb8  2**0
                  CONTENTS, READONLY, DEBUGGING
  8 .debug_line   00000aca  00000000  00000000  00001910  2**0
                  CONTENTS, READONLY, DEBUGGING
  9 .debug_frame  00000074  00000000  00000000  000023dc  2**2
                  CONTENTS, READONLY, DEBUGGING
 10 .debug_str    000114ad  00000000  00000000  00002450  2**0
                  CONTENTS, READONLY, DEBUGGING
 11 .debug_loc    000000a6  00000000  00000000  000138fd  2**0
                  CONTENTS, READONLY, DEBUGGING
 12 .debug_ranges 00000028  00000000  00000000  000139a3  2**0
                  CONTENTS, READONLY, DEBUGGING
 13 .debug_macro  00003e51  00000000  00000000  000139cb  2**0
                  CONTENTS, READONLY, DEBUGGING

Disassembly of section .text:

00000000 <__vectors>:
   0:	59 c0       	rjmp	.+178    	; 0xb4 <__ctors_end>
   2:	00 00       	nop
   4:	67 c0       	rjmp	.+206    	; 0xd4 <__bad_interrupt>
   6:	00 00       	nop
   8:	65 c0       	rjmp	.+202    	; 0xd4 <__bad_interrupt>
   a:	00 00       	nop
   c:	63 c0       	rjmp	.+198    	; 0xd4 <__bad_interrupt>
   e:	00 00       	nop
  10:	61 c0       	rjmp	.+194    	; 0xd4 <__bad_interrupt>
  12:	00 00       	nop
  14:	5f c0       	rjmp	.+190    	; 0xd4 <__bad_interrupt>
  16:	00 00       	nop
  18:	5d c0       	rjmp	.+186    	; 0xd4 <__bad_interrupt>
  1a:	00 00       	nop
  1c:	5b c0       	rjmp	.+182    	; 0xd4 <__bad_interrupt>
  1e:	00 00       	nop
  20:	59 c0       	rjmp	.+178    	; 0xd4 <__bad_interrupt>
  22:	00 00       	nop
  24:	57 c0       	rjmp	.+174    	; 0xd4 <__bad_interrupt>
  26:	00 00       	nop
  28:	55 c0       	rjmp	.+170    	; 0xd4 <__bad_interrupt>
  2a:	00 00       	nop
  2c:	53 c0       	rjmp	.+166    	; 0xd4 <__bad_interrupt>
  2e:	00 00       	nop
  30:	51 c0       	rjmp	.+162    	; 0xd4 <__bad_interrupt>
  32:	00 00       	nop
  34:	4f c0       	rjmp	.+158    	; 0xd4 <__bad_interrupt>
  36:	00 00       	nop
  38:	4d c0       	rjmp	.+154    	; 0xd4 <__bad_interrupt>
  3a:	00 00       	nop
  3c:	4b c0       	rjmp	.+150    	; 0xd4 <__bad_interrupt>
  3e:	00 00       	nop
  40:	61 c0       	rjmp	.+194    	; 0x104 <__vector_16>
  42:	00 00       	nop
  44:	47 c0       	rjmp	.+142    	; 0xd4 <__bad_interrupt>
  46:	00 00       	nop
  48:	45 c0       	rjmp	.+138    	; 0xd4 <__bad_interrupt>
  4a:	00 00       	nop
  4c:	43 c0       	rjmp	.+134    	; 0xd4 <__bad_interrupt>
  4e:	00 00       	nop
  50:	41 c0       	rjmp	.+130    	; 0xd4 <__bad_interrupt>
  52:	00 00       	nop
  54:	3f c0       	rjmp	.+126    	; 0xd4 <__bad_interrupt>
  56:	00 00       	nop
  58:	3d c0       	rjmp	.+122    	; 0xd4 <__bad_interrupt>
  5a:	00 00       	nop
  5c:	3b c0       	rjmp	.+118    	; 0xd4 <__bad_interrupt>
  5e:	00 00       	nop
  60:	39 c0       	rjmp	.+114    	; 0xd4 <__bad_interrupt>
  62:	00 00       	nop
  64:	37 c0       	rjmp	.+110    	; 0xd4 <__bad_interrupt>
  66:	00 00       	nop
  68:	35 c0       	rjmp	.+106    	; 0xd4 <__bad_interrupt>
  6a:	00 00       	nop
  6c:	33 c0       	rjmp	.+102    	; 0xd4 <__bad_interrupt>
  6e:	00 00       	nop
  70:	31 c0       	rjmp	.+98     	; 0xd4 <__bad_interrupt>
  72:	00 00       	nop
  74:	2f c0       	rjmp	.+94     	; 0xd4 <__bad_interrupt>
  76:	00 00       	nop
  78:	2d c0       	rjmp	.+90     	; 0xd4 <__bad_interrupt>
  7a:	00 00       	nop
  7c:	2b c0       	rjmp	.+86     	; 0xd4 <__bad_interrupt>
  7e:	00 00       	nop
  80:	29 c0       	rjmp	.+82     	; 0xd4 <__bad_interrupt>
  82:	00 00       	nop
  84:	27 c0       	rjmp	.+78     	; 0xd4 <__bad_interrupt>
  86:	00 00       	nop
  88:	25 c0       	rjmp	.+74     	; 0xd4 <__bad_interrupt>
  8a:	00 00       	nop
  8c:	23 c0       	rjmp	.+70     	; 0xd4 <__bad_interrupt>
  8e:	00 00       	nop
  90:	21 c0       	rjmp	.+66     	; 0xd4 <__bad_interrupt>
  92:	00 00       	nop
  94:	1f c0       	rjmp	.+62     	; 0xd4 <__bad_interrupt>
  96:	00 00       	nop
  98:	1d c0       	rjmp	.+58     	; 0xd4 <__bad_interrupt>
  9a:	00 00       	nop
  9c:	1b c0       	rjmp	.+54     	; 0xd4 <__bad_interrupt>
  9e:	00 00       	nop
  a0:	19 c0       	rjmp	.+50     	; 0xd4 <__bad_interrupt>
  a2:	00 00       	nop
  a4:	17 c0       	rjmp	.+46     	; 0xd4 <__bad_interrupt>
  a6:	00 00       	nop
  a8:	15 c0       	rjmp	.+42     	; 0xd4 <__bad_interrupt>
  aa:	00 00       	nop
  ac:	13 c0       	rjmp	.+38     	; 0xd4 <__bad_interrupt>
  ae:	00 00       	nop
  b0:	11 c0       	rjmp	.+34     	; 0xd4 <__bad_interrupt>
	...

000000b4 <__ctors_end>:
  b4:	11 24       	eor	r1, r1
  b6:	1f be       	out	0x3f, r1	; 63
  b8:	cf ef       	ldi	r28, 0xFF	; 255
  ba:	d8 e0       	ldi	r29, 0x08	; 8
  bc:	de bf       	out	0x3e, r29	; 62
  be:	cd bf       	out	0x3d, r28	; 61

000000c0 <__do_clear_bss>:
  c0:	21 e0       	ldi	r18, 0x01	; 1
  c2:	a0 e0       	ldi	r26, 0x00	; 0
  c4:	b1 e0       	ldi	r27, 0x01	; 1
  c6:	01 c0       	rjmp	.+2      	; 0xca <.do_clear_bss_start>

000000c8 <.do_clear_bss_loop>:
  c8:	1d 92       	st	X+, r1

000000ca <.do_clear_bss_start>:
  ca:	a2 30       	cpi	r26, 0x02	; 2
  cc:	b2 07       	cpc	r27, r18
  ce:	e1 f7       	brne	.-8      	; 0xc8 <.do_clear_bss_loop>
  d0:	0b d0       	rcall	.+22     	; 0xe8 <main>
  d2:	3c c0       	rjmp	.+120    	; 0x14c <_exit>

000000d4 <__bad_interrupt>:
  d4:	95 cf       	rjmp	.-214    	; 0x0 <__vectors>

000000d6 <board_init>:
		port_pin_flags_t flags)
{
	/* Select direction and initial pin state */
	if (flags & IOPORT_DIR_OUTPUT) {
		if (flags & IOPORT_INIT_HIGH) {
			*((uint8_t *)port + 2) |= pin_mask;
  d6:	95 b1       	in	r25, 0x05	; 5
			*((uint8_t *)port + 2) &= ~pin_mask;
		}

		*((uint8_t *)port + 1) |= pin_mask;
	} else {
		*((uint8_t *)port + 1) &= ~pin_mask;
  d8:	84 b1       	in	r24, 0x04	; 4
  da:	80 62       	ori	r24, 0x20	; 32
  dc:	8f 77       	andi	r24, 0x7F	; 127
  de:	84 b9       	out	0x04, r24	; 4
		if (flags & IOPORT_PULL_UP) {
			*((uint8_t *)port + 2) |= pin_mask;
  e0:	89 2f       	mov	r24, r25
  e2:	80 6a       	ori	r24, 0xA0	; 160
  e4:	85 b9       	out	0x05, r24	; 5
  e6:	08 95       	ret

000000e8 <main>:
int OFcount = 0;

int main (void)
{

	board_init();
  e8:	f6 df       	rcall	.-20     	; 0xd6 <board_init>

	DDRB |= (1<<DDB3); //output PB3
  ea:	23 9a       	sbi	0x04, 3	; 4

	TCNT0=0x00;//timer|count register
  ec:	16 bc       	out	0x26, r1	; 38
	TCCR0A = 0x00;//configuration register NORMAL MODE
  ee:	14 bc       	out	0x24, r1	; 36
	TCCR0B |= (1<<CS01)|(1<<CS00); //configuration register
  f0:	85 b5       	in	r24, 0x25	; 37
  f2:	83 60       	ori	r24, 0x03	; 3
  f4:	85 bd       	out	0x25, r24	; 37
	//PRESCALER 64
	
	
	TIMSK0 |= (1 << TOIE0);//enable timer0 overflow interrupt
  f6:	ee e6       	ldi	r30, 0x6E	; 110
  f8:	f0 e0       	ldi	r31, 0x00	; 0
  fa:	80 81       	ld	r24, Z
  fc:	81 60       	ori	r24, 0x01	; 1
  fe:	80 83       	st	Z, r24
	sei();
 100:	78 94       	sei
 102:	ff cf       	rjmp	.-2      	; 0x102 <main+0x1a>

00000104 <__vector_16>:
		//MAIN LOOP
	}
}

ISR (TIMER0_OVF_vect)
{
 104:	1f 92       	push	r1
 106:	0f 92       	push	r0
 108:	0f b6       	in	r0, 0x3f	; 63
 10a:	0f 92       	push	r0
 10c:	11 24       	eor	r1, r1
 10e:	2f 93       	push	r18
 110:	8f 93       	push	r24
 112:	9f 93       	push	r25
	OFcount++;
 114:	80 91 00 01 	lds	r24, 0x0100	; 0x800100 <_edata>
 118:	90 91 01 01 	lds	r25, 0x0101	; 0x800101 <_edata+0x1>
 11c:	01 96       	adiw	r24, 0x01	; 1
 11e:	90 93 01 01 	sts	0x0101, r25	; 0x800101 <_edata+0x1>
 122:	80 93 00 01 	sts	0x0100, r24	; 0x800100 <_edata>
	if (OFcount == 625)
 126:	81 37       	cpi	r24, 0x71	; 113
 128:	92 40       	sbci	r25, 0x02	; 2
 12a:	41 f4       	brne	.+16     	; 0x13c <__vector_16+0x38>
	{
		PORTB ^= (1<<DDB3); //output PB3 on
 12c:	95 b1       	in	r25, 0x05	; 5
 12e:	88 e0       	ldi	r24, 0x08	; 8
 130:	89 27       	eor	r24, r25
 132:	85 b9       	out	0x05, r24	; 5
		OFcount = 0;
 134:	10 92 01 01 	sts	0x0101, r1	; 0x800101 <_edata+0x1>
 138:	10 92 00 01 	sts	0x0100, r1	; 0x800100 <_edata>
	}
}
 13c:	9f 91       	pop	r25
 13e:	8f 91       	pop	r24
 140:	2f 91       	pop	r18
 142:	0f 90       	pop	r0
 144:	0f be       	out	0x3f, r0	; 63
 146:	0f 90       	pop	r0
 148:	1f 90       	pop	r1
 14a:	18 95       	reti

0000014c <_exit>:
 14c:	f8 94       	cli

0000014e <__stop_program>:
 14e:	ff cf       	rjmp	.-2      	; 0x14e <__stop_program>
